target datalayout = "e-m:e-p270:32:32-p271:32:32-p272:64:64-i64:64-i128:128-f80:128-n8:16:32:64-S128"
target triple = "x86_64-pc-linux-gnu"

%struct.reftable_block_source = type { ptr, ptr }
%struct.reftable_block_source_vtable = type { ptr, ptr, ptr, ptr }
%struct.reftable_block = type { ptr, i64, %struct.reftable_block_source }
%struct.reftable_reader = type { ptr, %struct.reftable_block_source, i64, i32, i32, i64, i64, i32, i32, %struct.reftable_reader_offsets, %struct.reftable_reader_offsets, %struct.reftable_reader_offsets, i64 }
%struct.reftable_reader_offsets = type { i32, i64, i64 }
%struct.block_iter = type { i32, ptr, i64, i32, %struct.reftable_buf, %struct.reftable_buf }
%struct.reftable_buf = type { i64, i64, ptr }
%struct.table_iter = type { ptr, i8, i64, %struct.block_reader, %struct.block_iter, i32 }
%struct.block_reader = type { i32, %struct.reftable_block, i32, ptr, ptr, i64, i32, ptr, i16, i32 }

@.str.1 = private unnamed_addr constant [18 x i8] c"reftable/reader.c\00", align 1
@.str.3 = private unnamed_addr constant [44 x i8] c"cannot decrement ref counter of dead reader\00", align 1

; Function Attrs: nounwind uwtable
define dso_local void @block_source_close(ptr noundef %0) #0 {
  %2 = alloca ptr, align 8
  store ptr %0, ptr %2, align 8, !tbaa !4
  %3 = load ptr, ptr %2, align 8, !tbaa !4
  %4 = getelementptr inbounds nuw %struct.reftable_block_source, ptr %3, i32 0, i32 0
  %5 = load ptr, ptr %4, align 8, !tbaa !9
  %6 = icmp ne ptr %5, null
  br i1 %6, label %8, label %7

7:                                                ; preds = %1
  br label %19

8:                                                ; preds = %1
  %9 = load ptr, ptr %2, align 8, !tbaa !4
  %10 = getelementptr inbounds nuw %struct.reftable_block_source, ptr %9, i32 0, i32 0
  %11 = load ptr, ptr %10, align 8, !tbaa !9
  %12 = getelementptr inbounds nuw %struct.reftable_block_source_vtable, ptr %11, i32 0, i32 3
  %13 = load ptr, ptr %12, align 8, !tbaa !25
  %14 = load ptr, ptr %2, align 8, !tbaa !4
  %15 = getelementptr inbounds nuw %struct.reftable_block_source, ptr %14, i32 0, i32 1
  %16 = load ptr, ptr %15, align 8, !tbaa !14
  call void %13(ptr noundef %16)
  %17 = load ptr, ptr %2, align 8, !tbaa !4
  %18 = getelementptr inbounds nuw %struct.reftable_block_source, ptr %17, i32 0, i32 0
  store ptr null, ptr %18, align 8, !tbaa !9
  br label %19

19:                                               ; preds = %8, %7
  ret void
}

; Function Attrs: nounwind uwtable
define dso_local void @reftable_reader_decref(ptr noundef %0) #0 {
  %2 = alloca ptr, align 8
  store ptr %0, ptr %2, align 8, !tbaa !26
  %3 = load ptr, ptr %2, align 8, !tbaa !26
  %4 = icmp ne ptr %3, null
  br i1 %4, label %6, label %5

5:                                                ; preds = %1
  br label %30

6:                                                ; preds = %1
  %7 = load ptr, ptr %2, align 8, !tbaa !26
  %8 = getelementptr inbounds nuw %struct.reftable_reader, ptr %7, i32 0, i32 12
  %9 = load i64, ptr %8, align 8, !tbaa !63
  %10 = icmp ne i64 %9, 0
  br i1 %10, label %12, label %11

11:                                               ; preds = %6
  call void (ptr, i32, ptr, ...) @BUG_fl(ptr noundef @.str.1, i32 noundef 687, ptr noundef @.str.3) #11
  unreachable

12:                                               ; preds = %6
  %13 = load ptr, ptr %2, align 8, !tbaa !26
  %14 = getelementptr inbounds nuw %struct.reftable_reader, ptr %13, i32 0, i32 12
  %15 = load i64, ptr %14, align 8, !tbaa !63
  %16 = add i64 %15, -1
  store i64 %16, ptr %14, align 8, !tbaa !63
  %17 = icmp ne i64 %16, 0
  br i1 %17, label %18, label %19

18:                                               ; preds = %12
  br label %30

19:                                               ; preds = %12
  %20 = load ptr, ptr %2, align 8, !tbaa !26
  %21 = getelementptr inbounds nuw %struct.reftable_reader, ptr %20, i32 0, i32 1
  call void @block_source_close(ptr noundef %21)
  br label %22

22:                                               ; preds = %19
  %23 = load ptr, ptr %2, align 8, !tbaa !26
  %24 = getelementptr inbounds nuw %struct.reftable_reader, ptr %23, i32 0, i32 0
  %25 = load ptr, ptr %24, align 8, !tbaa !32
  call void @reftable_free(ptr noundef %25)
  %26 = load ptr, ptr %2, align 8, !tbaa !26
  %27 = getelementptr inbounds nuw %struct.reftable_reader, ptr %26, i32 0, i32 0
  store ptr null, ptr %27, align 8, !tbaa !32
  br label %28

28:                                               ; preds = %22
  %29 = load ptr, ptr %2, align 8, !tbaa !26
  call void @reftable_free(ptr noundef %29)
  br label %30

30:                                               ; preds = %28, %18, %5
  ret void
}

; Function Attrs: nounwind uwtable
define internal void @table_iter_block_done(ptr noundef %0) #0 {
  %2 = alloca ptr, align 8
  store ptr %0, ptr %2, align 8, !tbaa !47
  %3 = load ptr, ptr %2, align 8, !tbaa !47
  %4 = getelementptr inbounds nuw %struct.table_iter, ptr %3, i32 0, i32 3
  call void @block_reader_release(ptr noundef %4)
  %5 = load ptr, ptr %2, align 8, !tbaa !47
  %6 = getelementptr inbounds nuw %struct.table_iter, ptr %5, i32 0, i32 4
  call void @block_iter_reset(ptr noundef %6)
  ret void
}

; Function Attrs: nounwind uwtable
define internal void @table_iter_close(ptr noundef %0) #0 {
  %2 = alloca ptr, align 8
  store ptr %0, ptr %2, align 8, !tbaa !47
  %3 = load ptr, ptr %2, align 8, !tbaa !47
  call void @table_iter_block_done(ptr noundef %3)
  %4 = load ptr, ptr %2, align 8, !tbaa !47
  %5 = getelementptr inbounds nuw %struct.table_iter, ptr %4, i32 0, i32 4
  call void @block_iter_close(ptr noundef %5)
  %6 = load ptr, ptr %2, align 8, !tbaa !47
  %7 = getelementptr inbounds nuw %struct.table_iter, ptr %6, i32 0, i32 0
  %8 = load ptr, ptr %7, align 8, !tbaa !49
  call void @reftable_reader_decref(ptr noundef %8)
  ret void
}