; Function Attrs: nounwind uwtable
define internal fastcc void @table_iter_close(ptr noundef %0) unnamed_addr #0 {
  %2 = getelementptr inbounds nuw i8, ptr %0, i64 24
  tail call void @block_reader_release(ptr noundef nonnull %2) #12
  %3 = getelementptr inbounds nuw i8, ptr %0, i64 120
  tail call void @block_iter_reset(ptr noundef nonnull %3) #12
  tail call void @block_iter_close(ptr noundef nonnull %3) #12
  %4 = load ptr, ptr %0, align 8, !tbaa !33
  %.not.i = icmp eq ptr %4, null
  br i1 %.not.i, label %reftable_reader_decref.exit, label %5

5:                                                ; preds = %1
  %6 = getelementptr inbounds nuw i8, ptr %4, i64 136
  %7 = load i64, ptr %6, align 8, !tbaa !32
  %.not8.i = icmp eq i64 %7, 0
  br i1 %.not8.i, label %8, label %9

8:                                                ; preds = %5
  tail call void (ptr, i32, ptr, ...) @BUG_fl(ptr noundef nonnull @.str.1, i32 noundef 687, ptr noundef nonnull @.str.3) #13
  unreachable

9:                                                ; preds = %5
  %10 = add i64 %7, -1
  store i64 %10, ptr %6, align 8, !tbaa !32
  %.not9.i = icmp eq i64 %10, 0
  br i1 %.not9.i, label %11, label %reftable_reader_decref.exit

11:                                               ; preds = %9
  %12 = getelementptr inbounds nuw i8, ptr %4, i64 8
  %13 = load ptr, ptr %12, align 8, !tbaa !4
  %.not.i.i = icmp eq ptr %13, null
  br i1 %.not.i.i, label %block_source_close.exit.i, label %14

14:                                               ; preds = %11
  %15 = getelementptr inbounds nuw i8, ptr %13, i64 24
  %16 = load ptr, ptr %15, align 8, !tbaa !17
  %17 = getelementptr inbounds nuw i8, ptr %4, i64 16
  %18 = load ptr, ptr %17, align 8, !tbaa !12
  tail call void %16(ptr noundef %18) #12
  store ptr null, ptr %12, align 8, !tbaa !4
  br label %block_source_close.exit.i

block_source_close.exit.i:                        ; preds = %14, %11
  %19 = load ptr, ptr %4, align 8, !tbaa !24
  tail call void @reftable_free(ptr noundef %19) #12
  store ptr null, ptr %4, align 8, !tbaa !24
  tail call void @reftable_free(ptr noundef nonnull %4) #12
  br label %reftable_reader_decref.exit

reftable_reader_decref.exit:                      ; preds = %1, %9, %block_source_close.exit.i
  ret void
}